target datalayout = "e-m:e-p270:32:32-p271:32:32-p272:64:64-i64:64-i128:128-f80:128-n8:16:32:64-S128"
target triple = "x86_64-pc-linux-gnu"

%"struct.cv::Ptr" = type { %"class.std::shared_ptr" }
%"class.std::shared_ptr" = type { %"class.std::__shared_ptr" }
%"class.std::__shared_ptr" = type { ptr, %"class.std::__shared_count" }
%"class.std::__shared_count" = type { ptr }
%"class.cv::Mat_" = type { %"class.cv::Mat" }
%"class.cv::Mat" = type { i32, i32, i32, i32, ptr, ptr, ptr, ptr, ptr, ptr, %"struct.cv::MatSize", %"struct.cv::MatStep" }
%"struct.cv::MatSize" = type { ptr }
%"struct.cv::MatStep" = type { ptr, [2 x i64] }
%"class.cv::RNG" = type { i64 }
%"class.cv::PFSolver" = type { %"class.cv::MinProblemSolver", %"class.cv::Mat_", %"class.cv::Mat_", %"class.cv::Mat_", %"struct.cv::Ptr", ptr, %"class.cv::TermCriteria", i32, i32, i32, double, %"class.cv::RNG" }
%"class.cv::MinProblemSolver" = type { %"class.cv::Algorithm" }
%"class.cv::Algorithm" = type { ptr }
%"class.cv::TermCriteria" = type { i32, i32, double }

; Function Attrs: inlinehint mustprogress nounwind uwtable
define linkonce_odr hidden void @_ZN2cv12TermCriteriaC2Eiid(ptr noundef nonnull align 8 dereferenceable(16) %0, i32 noundef %1, i32 noundef %2, double noundef %3) unnamed_addr #6 comdat align 2 {
  %5 = alloca ptr, align 8
  %6 = alloca i32, align 4
  %7 = alloca i32, align 4
  %8 = alloca double, align 8
  store ptr %0, ptr %5, align 8, !tbaa !44
  store i32 %1, ptr %6, align 4, !tbaa !58
  store i32 %2, ptr %7, align 4, !tbaa !58
  store double %3, ptr %8, align 8, !tbaa !57
  %9 = load ptr, ptr %5, align 8
  %10 = getelementptr inbounds nuw %"class.cv::TermCriteria", ptr %9, i32 0, i32 0
  %11 = load i32, ptr %6, align 4, !tbaa !58
  store i32 %11, ptr %10, align 8, !tbaa !46
  %12 = getelementptr inbounds nuw %"class.cv::TermCriteria", ptr %9, i32 0, i32 1
  %13 = load i32, ptr %7, align 4, !tbaa !58
  store i32 %13, ptr %12, align 4, !tbaa !47
  %14 = getelementptr inbounds nuw %"class.cv::TermCriteria", ptr %9, i32 0, i32 2
  %15 = load double, ptr %8, align 8, !tbaa !57
  store double %15, ptr %14, align 8, !tbaa !48
  ret void
}

; Function Attrs: mustprogress uwtable
define hidden { i64, double } @_ZNK2cv8PFSolver15getTermCriteriaEv(ptr noundef nonnull align 8 dereferenceable(368) %0) unnamed_addr #4 align 2 {
  %2 = alloca %"class.cv::TermCriteria", align 8
  %3 = alloca ptr, align 8
  store ptr %0, ptr %3, align 8, !tbaa !3
  %4 = load ptr, ptr %3, align 8
  %5 = getelementptr inbounds nuw %"class.cv::PFSolver", ptr %4, i32 0, i32 7
  %6 = load i32, ptr %5, align 8, !tbaa !78
  call void @_ZN2cv12TermCriteriaC2Eiid(ptr noundef nonnull align 8 dereferenceable(16) %2, i32 noundef 1, i32 noundef %6, double noundef 0.000000e+00)
  %7 = load { i64, double }, ptr %2, align 8
  ret { i64, double } %7
}