; Function Attrs: mustprogress nofree norecurse nosync nounwind willreturn memory(argmem: read) uwtable
define hidden { i64, double } @_ZNK2cv8PFSolver15getTermCriteriaEv(ptr noundef nonnull readonly align 8 captures(none) dereferenceable(368) %0) unnamed_addr #11 align 2 {
  %2 = getelementptr inbounds nuw i8, ptr %0, i64 336
  %3 = load i32, ptr %2, align 8, !tbaa !66
  %.sroa.2.0.insert.ext = zext i32 %3 to i64
  %.sroa.2.0.insert.shift = shl nuw i64 %.sroa.2.0.insert.ext, 32
  %.sroa.0.0.insert.insert = or disjoint i64 %.sroa.2.0.insert.shift, 1
  %.fca.0.insert = insertvalue { i64, double } poison, i64 %.sroa.0.0.insert.insert, 0
  %.fca.1.insert = insertvalue { i64, double } %.fca.0.insert, double 0.000000e+00, 1
  ret { i64, double } %.fca.1.insert
}